target datalayout = "e-m:e-p270:32:32-p271:32:32-p272:64:64-i64:64-i128:128-f80:128-n8:16:32:64-S128"
target triple = "x86_64-pc-linux-gnu"

%struct.sp_int = type { i16, i16, [129 x i64] }

; Function Attrs: nounwind uwtable
define i32 @sp_mod_2d(ptr noundef %0, i32 noundef %1, ptr noundef %2) #0 {
  %4 = alloca ptr, align 8
  %5 = alloca i32, align 4
  %6 = alloca ptr, align 8
  %7 = alloca i32, align 4
  %8 = alloca i16, align 2
  %9 = alloca i32, align 4
  store ptr %0, ptr %4, align 8, !tbaa !3
  store i32 %1, ptr %5, align 4, !tbaa !8
  store ptr %2, ptr %6, align 8, !tbaa !3
  call void @llvm.lifetime.start.p0(i64 4, ptr %7) #8
  store i32 0, ptr %7, align 4, !tbaa !8
  call void @llvm.lifetime.start.p0(i64 2, ptr %8) #8
  %10 = load i32, ptr %5, align 4, !tbaa !8
  %11 = add nsw i32 %10, 64
  %12 = sub nsw i32 %11, 1
  %13 = ashr i32 %12, 6
  %14 = trunc i32 %13 to i16
  store i16 %14, ptr %8, align 2, !tbaa !32
  %15 = load ptr, ptr %4, align 8, !tbaa !3
  %16 = icmp eq ptr %15, null
  br i1 %16, label %23, label %17

17:                                               ; preds = %3
  %18 = load ptr, ptr %6, align 8, !tbaa !3
  %19 = icmp eq ptr %18, null
  br i1 %19, label %23, label %20

20:                                               ; preds = %17
  %21 = load i32, ptr %5, align 4, !tbaa !8
  %22 = icmp slt i32 %21, 0
  br i1 %22, label %23, label %24

23:                                               ; preds = %20, %17, %3
  store i32 -98, ptr %7, align 4, !tbaa !8
  br label %24

24:                                               ; preds = %23, %20
  %25 = load i32, ptr %7, align 4, !tbaa !8
  %26 = icmp eq i32 %25, 0
  br i1 %26, label %27, label %36

27:                                               ; preds = %24
  %28 = load i16, ptr %8, align 2, !tbaa !32
  %29 = zext i16 %28 to i32
  %30 = load ptr, ptr %6, align 8, !tbaa !3
  %31 = getelementptr inbounds nuw %struct.sp_int, ptr %30, i32 0, i32 1
  %32 = load i16, ptr %31, align 2, !tbaa !12
  %33 = zext i16 %32 to i32
  %34 = icmp sgt i32 %29, %33
  br i1 %34, label %35, label %36

35:                                               ; preds = %27
  store i32 -98, ptr %7, align 4, !tbaa !8
  br label %36

36:                                               ; preds = %35, %27, %24
  %37 = load i32, ptr %7, align 4, !tbaa !8
  %38 = icmp eq i32 %37, 0
  br i1 %38, label %39, label %131

39:                                               ; preds = %36
  %40 = load ptr, ptr %4, align 8, !tbaa !3
  %41 = load ptr, ptr %6, align 8, !tbaa !3
  %42 = icmp ne ptr %40, %41
  br i1 %42, label %43, label %59

43:                                               ; preds = %39
  %44 = load ptr, ptr %6, align 8, !tbaa !3
  %45 = getelementptr inbounds nuw %struct.sp_int, ptr %44, i32 0, i32 2
  %46 = getelementptr inbounds [129 x i64], ptr %45, i64 0, i64 0
  %47 = load ptr, ptr %4, align 8, !tbaa !3
  %48 = getelementptr inbounds nuw %struct.sp_int, ptr %47, i32 0, i32 2
  %49 = getelementptr inbounds [129 x i64], ptr %48, i64 0, i64 0
  %50 = load i16, ptr %8, align 2, !tbaa !32
  %51 = zext i16 %50 to i32
  %52 = mul i32 %51, 8
  %53 = zext i32 %52 to i64
  call void @llvm.memcpy.p0.p0.i64(ptr align 8 %46, ptr align 8 %49, i64 %53, i1 false)
  %54 = load ptr, ptr %4, align 8, !tbaa !3
  %55 = getelementptr inbounds nuw %struct.sp_int, ptr %54, i32 0, i32 0
  %56 = load i16, ptr %55, align 8, !tbaa !15
  %57 = load ptr, ptr %6, align 8, !tbaa !3
  %58 = getelementptr inbounds nuw %struct.sp_int, ptr %57, i32 0, i32 0
  store i16 %56, ptr %58, align 8, !tbaa !15
  br label %59

59:                                               ; preds = %43, %39
  %60 = load i16, ptr %8, align 2, !tbaa !32
  %61 = zext i16 %60 to i32
  %62 = load ptr, ptr %4, align 8, !tbaa !3
  %63 = getelementptr inbounds nuw %struct.sp_int, ptr %62, i32 0, i32 0
  %64 = load i16, ptr %63, align 8, !tbaa !15
  %65 = zext i16 %64 to i32
  %66 = icmp sle i32 %61, %65
  br i1 %66, label %67, label %130

67:                                               ; preds = %59
  %68 = load i16, ptr %8, align 2, !tbaa !32
  %69 = load ptr, ptr %6, align 8, !tbaa !3
  %70 = getelementptr inbounds nuw %struct.sp_int, ptr %69, i32 0, i32 0
  store i16 %68, ptr %70, align 8, !tbaa !15
  %71 = load i32, ptr %5, align 4, !tbaa !8
  %72 = and i32 %71, 63
  store i32 %72, ptr %5, align 4, !tbaa !8
  %73 = load i32, ptr %5, align 4, !tbaa !8
  %74 = icmp sgt i32 %73, 0
  br i1 %74, label %75, label %91

75:                                               ; preds = %67
  %76 = load i32, ptr %5, align 4, !tbaa !8
  %77 = zext i32 %76 to i64
  %78 = shl i64 1, %77
  %79 = sub i64 %78, 1
  %80 = load ptr, ptr %6, align 8, !tbaa !3
  %81 = getelementptr inbounds nuw %struct.sp_int, ptr %80, i32 0, i32 2
  %82 = load ptr, ptr %6, align 8, !tbaa !3
  %83 = getelementptr inbounds nuw %struct.sp_int, ptr %82, i32 0, i32 0
  %84 = load i16, ptr %83, align 8, !tbaa !15
  %85 = zext i16 %84 to i32
  %86 = sub nsw i32 %85, 1
  %87 = sext i32 %86 to i64
  %88 = getelementptr inbounds [129 x i64], ptr %81, i64 0, i64 %87
  %89 = load i64, ptr %88, align 8, !tbaa !16
  %90 = and i64 %89, %79
  store i64 %90, ptr %88, align 8, !tbaa !16
  br label %91

91:                                               ; preds = %75, %67
  br label %92

92:                                               ; preds = %91
  call void @llvm.lifetime.start.p0(i64 4, ptr %9) #8
  %93 = load ptr, ptr %6, align 8, !tbaa !3
  %94 = getelementptr inbounds nuw %struct.sp_int, ptr %93, i32 0, i32 0
  %95 = load i16, ptr %94, align 8, !tbaa !15
  %96 = zext i16 %95 to i32
  %97 = icmp sgt i32 %96, 0
  br i1 %97, label %98, label %127

98:                                               ; preds = %92
  %99 = load ptr, ptr %6, align 8, !tbaa !3
  %100 = getelementptr inbounds nuw %struct.sp_int, ptr %99, i32 0, i32 0
  %101 = load i16, ptr %100, align 8, !tbaa !15
  %102 = zext i16 %101 to i32
  %103 = sub nsw i32 %102, 1
  store i32 %103, ptr %9, align 4, !tbaa !8
  br label %104

104:                                              ; preds = %118, %98
  %105 = load i32, ptr %9, align 4, !tbaa !8
  %106 = icmp sge i32 %105, 0
  br i1 %106, label %107, label %115

107:                                              ; preds = %104
  %108 = load ptr, ptr %6, align 8, !tbaa !3
  %109 = getelementptr inbounds nuw %struct.sp_int, ptr %108, i32 0, i32 2
  %110 = load i32, ptr %9, align 4, !tbaa !8
  %111 = sext i32 %110 to i64
  %112 = getelementptr inbounds [129 x i64], ptr %109, i64 0, i64 %111
  %113 = load i64, ptr %112, align 8, !tbaa !16
  %114 = icmp eq i64 %113, 0
  br label %115

115:                                              ; preds = %107, %104
  %116 = phi i1 [ false, %104 ], [ %114, %107 ]
  br i1 %116, label %117, label %121

117:                                              ; preds = %115
  br label %118

118:                                              ; preds = %117
  %119 = load i32, ptr %9, align 4, !tbaa !8
  %120 = add nsw i32 %119, -1
  store i32 %120, ptr %9, align 4, !tbaa !8
  br label %104, !llvm.loop !111

121:                                              ; preds = %115
  %122 = load i32, ptr %9, align 4, !tbaa !8
  %123 = add nsw i32 %122, 1
  %124 = trunc i32 %123 to i16
  %125 = load ptr, ptr %6, align 8, !tbaa !3
  %126 = getelementptr inbounds nuw %struct.sp_int, ptr %125, i32 0, i32 0
  store i16 %124, ptr %126, align 8, !tbaa !15
  br label %127

127:                                              ; preds = %121, %92
  call void @llvm.lifetime.end.p0(i64 4, ptr %9) #8
  br label %128

128:                                              ; preds = %127
  br label %129

129:                                              ; preds = %128
  br label %130

130:                                              ; preds = %129, %59
  br label %131

131:                                              ; preds = %130, %36
  %132 = load i32, ptr %7, align 4, !tbaa !8
  call void @llvm.lifetime.end.p0(i64 2, ptr %8) #8
  call void @llvm.lifetime.end.p0(i64 4, ptr %7) #8
  ret i32 %132
}