; Function Attrs: nofree norecurse nosync nounwind memory(argmem: readwrite) uwtable
define range(i32 -98, 1) i32 @sp_mod_2d(ptr noundef readonly captures(address) %0, i32 noundef %1, ptr noundef captures(address) %2) local_unnamed_addr #8 {
  %4 = add i32 %1, 63
  %5 = lshr i32 %4, 6
  %6 = trunc i32 %5 to i16
  %7 = icmp ne ptr %0, null
  %8 = icmp ne ptr %2, null
  %or.cond.not43 = and i1 %7, %8
  %9 = icmp sgt i32 %1, -1
  %or.cond3.not = and i1 %9, %or.cond.not43
  br i1 %or.cond3.not, label %10, label %.thread51

10:                                               ; preds = %3
  %11 = and i32 %5, 65535
  %12 = getelementptr inbounds nuw i8, ptr %2, i64 2
  %13 = load i16, ptr %12, align 2, !tbaa !10
  %14 = zext i16 %13 to i32
  %15 = icmp samesign ugt i32 %11, %14
  br i1 %15, label %.thread51, label %.thread

.thread:                                          ; preds = %10
  %.not = icmp eq ptr %0, %2
  br i1 %.not, label %.thread._crit_edge, label %16

.thread._crit_edge:                               ; preds = %.thread
  %.pre = load i16, ptr %0, align 8, !tbaa !12
  br label %23

16:                                               ; preds = %.thread
  %17 = getelementptr inbounds nuw i8, ptr %2, i64 8
  %18 = getelementptr inbounds nuw i8, ptr %0, i64 8
  %19 = shl nuw nsw i32 %5, 3
  %20 = and i32 %19, 524280
  %21 = zext nneg i32 %20 to i64
  tail call void @llvm.memcpy.p0.p0.i64(ptr nonnull align 8 %17, ptr nonnull align 8 %18, i64 %21, i1 false)
  %22 = load i16, ptr %0, align 8, !tbaa !12
  store i16 %22, ptr %2, align 8, !tbaa !12
  br label %23

23:                                               ; preds = %.thread._crit_edge, %16
  %24 = phi i16 [ %.pre, %.thread._crit_edge ], [ %22, %16 ]
  %25 = zext i16 %24 to i32
  %.not44 = icmp samesign ugt i32 %11, %25
  br i1 %.not44, label %.thread51, label %26

26:                                               ; preds = %23
  store i16 %6, ptr %2, align 8, !tbaa !12
  %27 = and i32 %1, 63
  %.not45 = icmp eq i32 %27, 0
  br i1 %.not45, label %37, label %28

28:                                               ; preds = %26
  %29 = zext nneg i32 %27 to i64
  %notmask = shl nsw i64 -1, %29
  %30 = xor i64 %notmask, -1
  %31 = getelementptr inbounds nuw i8, ptr %2, i64 8
  %32 = add nsw i32 %11, -1
  %33 = sext i32 %32 to i64
  %34 = getelementptr inbounds [129 x i64], ptr %31, i64 0, i64 %33
  %35 = load i64, ptr %34, align 8, !tbaa !8
  %36 = and i64 %35, %30
  store i64 %36, ptr %34, align 8, !tbaa !8
  br label %37

37:                                               ; preds = %26, %28
  %.not46 = icmp eq i16 %6, 0
  br i1 %.not46, label %.thread51, label %38

38:                                               ; preds = %37
  %39 = getelementptr inbounds nuw i8, ptr %2, i64 8
  %.mask = and i32 %5, 65535
  %40 = zext nneg i32 %.mask to i64
  br label %41

41:                                               ; preds = %43, %38
  %indvars.iv = phi i64 [ %indvars.iv.next, %43 ], [ %40, %38 ]
  %42 = icmp sgt i64 %indvars.iv, 0
  br i1 %42, label %43, label %.critedge

43:                                               ; preds = %41
  %indvars.iv.next = add nsw i64 %indvars.iv, -1
  %44 = getelementptr inbounds nuw [129 x i64], ptr %39, i64 0, i64 %indvars.iv.next
  %45 = load i64, ptr %44, align 8, !tbaa !8
  %46 = icmp eq i64 %45, 0
  br i1 %46, label %41, label %.critedge.split.loop.exit54, !llvm.loop !99

.critedge.split.loop.exit54:                      ; preds = %43
  %47 = trunc i64 %indvars.iv to i16
  br label %.critedge

.critedge:                                        ; preds = %41, %.critedge.split.loop.exit54
  %.0.in.lcssa = phi i16 [ %47, %.critedge.split.loop.exit54 ], [ 0, %41 ]
  store i16 %.0.in.lcssa, ptr %2, align 8, !tbaa !12
  br label %.thread51

.thread51:                                        ; preds = %3, %10, %37, %.critedge, %23
  %.149 = phi i32 [ 0, %37 ], [ 0, %.critedge ], [ 0, %23 ], [ -98, %10 ], [ -98, %3 ]
  ret i32 %.149
}